target datalayout = "e-m:e-p270:32:32-p271:32:32-p272:64:64-i64:64-i128:128-f80:128-n8:16:32:64-S128"
target triple = "x86_64-pc-linux-gnu"

%struct.FunctionCallInfoBaseData = type { ptr, ptr, ptr, i32, i8, i16, [0 x %struct.NullableDatum] }
%struct.NullableDatum = type { i64, i8 }

@.str = private unnamed_addr constant [23 x i8] c"0123456789abcdefABCDEF\00", align 1
@.str.1 = private unnamed_addr constant [39 x i8] c"invalid input syntax for type %s: \22%s\22\00", align 1
@.str.2 = private unnamed_addr constant [7 x i8] c"pg_lsn\00", align 1
@.str.3 = private unnamed_addr constant [9 x i8] c"pg_lsn.c\00", align 1
@__func__.pg_lsn_in = private unnamed_addr constant [10 x i8] c"pg_lsn_in\00", align 1

; Function Attrs: inlinehint nounwind uwtable
define internal i64 @Int64GetDatum(i64 noundef %0) #4 {
  %2 = alloca i64, align 8
  store i64 %0, ptr %2, align 8
  %3 = load i64, ptr %2, align 8
  ret i64 %3
}

; Function Attrs: inlinehint nounwind uwtable
define internal ptr @DatumGetPointer(i64 noundef %0) #4 {
  %2 = alloca i64, align 8
  store i64 %0, ptr %2, align 8
  %3 = load i64, ptr %2, align 8
  %4 = inttoptr i64 %3 to ptr
  ret ptr %4
}

; Function Attrs: inlinehint nounwind uwtable
define internal i64 @LSNGetDatum(i64 noundef %0) #4 {
  %2 = alloca i64, align 8
  store i64 %0, ptr %2, align 8
  %3 = load i64, ptr %2, align 8
  %4 = call i64 @Int64GetDatum(i64 noundef %3)
  ret i64 %4
}

; Function Attrs: nounwind uwtable
define dso_local i64 @pg_lsn_in_internal(ptr noundef %0, ptr noundef %1) #0 {
  %3 = alloca i64, align 8
  %4 = alloca ptr, align 8
  %5 = alloca ptr, align 8
  %6 = alloca i32, align 4
  %7 = alloca i32, align 4
  %8 = alloca i32, align 4
  %9 = alloca i32, align 4
  %10 = alloca i64, align 8
  %11 = alloca i32, align 4
  store ptr %0, ptr %4, align 8
  store ptr %1, ptr %5, align 8
  call void @llvm.lifetime.start.p0(i64 4, ptr %6) #9
  call void @llvm.lifetime.start.p0(i64 4, ptr %7) #9
  call void @llvm.lifetime.start.p0(i64 4, ptr %8) #9
  call void @llvm.lifetime.start.p0(i64 4, ptr %9) #9
  call void @llvm.lifetime.start.p0(i64 8, ptr %10) #9
  %12 = load ptr, ptr %5, align 8
  store i8 0, ptr %12, align 1
  %13 = load ptr, ptr %4, align 8
  %14 = call i64 @strspn(ptr noundef %13, ptr noundef @.str) #10
  %15 = trunc i64 %14 to i32
  store i32 %15, ptr %6, align 4
  %16 = load i32, ptr %6, align 4
  %17 = icmp slt i32 %16, 1
  br i1 %17, label %29, label %18

18:                                               ; preds = %2
  %19 = load i32, ptr %6, align 4
  %20 = icmp sgt i32 %19, 8
  br i1 %20, label %29, label %21

21:                                               ; preds = %18
  %22 = load ptr, ptr %4, align 8
  %23 = load i32, ptr %6, align 4
  %24 = sext i32 %23 to i64
  %25 = getelementptr inbounds i8, ptr %22, i64 %24
  %26 = load i8, ptr %25, align 1
  %27 = sext i8 %26 to i32
  %28 = icmp ne i32 %27, 47
  br i1 %28, label %29, label %31

29:                                               ; preds = %21, %18, %2
  %30 = load ptr, ptr %5, align 8
  store i8 1, ptr %30, align 1
  store i64 0, ptr %3, align 8
  store i32 1, ptr %11, align 4
  br label %75

31:                                               ; preds = %21
  %32 = load ptr, ptr %4, align 8
  %33 = load i32, ptr %6, align 4
  %34 = sext i32 %33 to i64
  %35 = getelementptr inbounds i8, ptr %32, i64 %34
  %36 = getelementptr inbounds i8, ptr %35, i64 1
  %37 = call i64 @strspn(ptr noundef %36, ptr noundef @.str) #10
  %38 = trunc i64 %37 to i32
  store i32 %38, ptr %7, align 4
  %39 = load i32, ptr %7, align 4
  %40 = icmp slt i32 %39, 1
  br i1 %40, label %55, label %41

41:                                               ; preds = %31
  %42 = load i32, ptr %7, align 4
  %43 = icmp sgt i32 %42, 8
  br i1 %43, label %55, label %44

44:                                               ; preds = %41
  %45 = load ptr, ptr %4, align 8
  %46 = load i32, ptr %6, align 4
  %47 = add i32 %46, 1
  %48 = load i32, ptr %7, align 4
  %49 = add i32 %47, %48
  %50 = sext i32 %49 to i64
  %51 = getelementptr inbounds i8, ptr %45, i64 %50
  %52 = load i8, ptr %51, align 1
  %53 = sext i8 %52 to i32
  %54 = icmp ne i32 %53, 0
  br i1 %54, label %55, label %57

55:                                               ; preds = %44, %41, %31
  %56 = load ptr, ptr %5, align 8
  store i8 1, ptr %56, align 1
  store i64 0, ptr %3, align 8
  store i32 1, ptr %11, align 4
  br label %75

57:                                               ; preds = %44
  %58 = load ptr, ptr %4, align 8
  %59 = call i64 @strtoul(ptr noundef %58, ptr noundef null, i32 noundef 16) #9
  %60 = trunc i64 %59 to i32
  store i32 %60, ptr %8, align 4
  %61 = load ptr, ptr %4, align 8
  %62 = load i32, ptr %6, align 4
  %63 = sext i32 %62 to i64
  %64 = getelementptr inbounds i8, ptr %61, i64 %63
  %65 = getelementptr inbounds i8, ptr %64, i64 1
  %66 = call i64 @strtoul(ptr noundef %65, ptr noundef null, i32 noundef 16) #9
  %67 = trunc i64 %66 to i32
  store i32 %67, ptr %9, align 4
  %68 = load i32, ptr %8, align 4
  %69 = zext i32 %68 to i64
  %70 = shl i64 %69, 32
  %71 = load i32, ptr %9, align 4
  %72 = zext i32 %71 to i64
  %73 = or i64 %70, %72
  store i64 %73, ptr %10, align 8
  %74 = load i64, ptr %10, align 8
  store i64 %74, ptr %3, align 8
  store i32 1, ptr %11, align 4
  br label %75

75:                                               ; preds = %57, %55, %29
  call void @llvm.lifetime.end.p0(i64 8, ptr %10) #9
  call void @llvm.lifetime.end.p0(i64 4, ptr %9) #9
  call void @llvm.lifetime.end.p0(i64 4, ptr %8) #9
  call void @llvm.lifetime.end.p0(i64 4, ptr %7) #9
  call void @llvm.lifetime.end.p0(i64 4, ptr %6) #9
  %76 = load i64, ptr %3, align 8
  ret i64 %76
}

; Function Attrs: inlinehint nounwind uwtable
define internal ptr @DatumGetCString(i64 noundef %0) #4 {
  %2 = alloca i64, align 8
  store i64 %0, ptr %2, align 8
  %3 = load i64, ptr %2, align 8
  %4 = call ptr @DatumGetPointer(i64 noundef %3)
  ret ptr %4
}

; Function Attrs: nounwind uwtable
define dso_local i64 @pg_lsn_in(ptr noundef %0) #0 {
  %2 = alloca i64, align 8
  %3 = alloca ptr, align 8
  %4 = alloca ptr, align 8
  %5 = alloca i64, align 8
  %6 = alloca i8, align 1
  %7 = alloca ptr, align 8
  %8 = alloca i32, align 4
  store ptr %0, ptr %3, align 8
  call void @llvm.lifetime.start.p0(i64 8, ptr %4) #9
  %9 = load ptr, ptr %3, align 8
  %10 = getelementptr inbounds nuw %struct.FunctionCallInfoBaseData, ptr %9, i32 0, i32 6
  %11 = getelementptr inbounds [0 x %struct.NullableDatum], ptr %10, i64 0, i64 0
  %12 = getelementptr inbounds nuw %struct.NullableDatum, ptr %11, i32 0, i32 0
  %13 = load i64, ptr %12, align 8
  %14 = call ptr @DatumGetCString(i64 noundef %13)
  store ptr %14, ptr %4, align 8
  call void @llvm.lifetime.start.p0(i64 8, ptr %5) #9
  call void @llvm.lifetime.start.p0(i64 1, ptr %6) #9
  store i8 0, ptr %6, align 1
  %15 = load ptr, ptr %4, align 8
  %16 = call i64 @pg_lsn_in_internal(ptr noundef %15, ptr noundef %6)
  store i64 %16, ptr %5, align 8
  %17 = load i8, ptr %6, align 1, !range !4, !noundef !5
  %18 = trunc i8 %17 to i1
  br i1 %18, label %19, label %37

19:                                               ; preds = %1
  br label %20

20:                                               ; preds = %19
  br label %21

21:                                               ; preds = %20
  call void @llvm.lifetime.start.p0(i64 8, ptr %7) #9
  %22 = load ptr, ptr %3, align 8
  %23 = getelementptr inbounds nuw %struct.FunctionCallInfoBaseData, ptr %22, i32 0, i32 1
  %24 = load ptr, ptr %23, align 8
  store ptr %24, ptr %7, align 8
  %25 = load ptr, ptr %7, align 8
  %26 = call zeroext i1 @errsave_start(ptr noundef %25, ptr noundef null)
  br i1 %26, label %27, label %32

27:                                               ; preds = %21
  %28 = call i32 @errcode(i32 noundef 33685634)
  %29 = load ptr, ptr %4, align 8
  %30 = call i32 (ptr, ...) @errmsg(ptr noundef @.str.1, ptr noundef @.str.2, ptr noundef %29)
  %31 = load ptr, ptr %7, align 8
  call void @errsave_finish(ptr noundef %31, ptr noundef @.str.3, i32 noundef 74, ptr noundef @__func__.pg_lsn_in)
  br label %32

32:                                               ; preds = %27, %21
  call void @llvm.lifetime.end.p0(i64 8, ptr %7) #9
  br label %33

33:                                               ; preds = %32
  br label %34

34:                                               ; preds = %33
  store i64 0, ptr %2, align 8
  store i32 1, ptr %8, align 4
  br label %40

35:                                               ; No predecessors!
  br label %36

36:                                               ; preds = %35
  br label %37

37:                                               ; preds = %36, %1
  %38 = load i64, ptr %5, align 8
  %39 = call i64 @LSNGetDatum(i64 noundef %38)
  store i64 %39, ptr %2, align 8
  store i32 1, ptr %8, align 4
  br label %40

40:                                               ; preds = %37, %34
  call void @llvm.lifetime.end.p0(i64 1, ptr %6) #9
  call void @llvm.lifetime.end.p0(i64 8, ptr %5) #9
  call void @llvm.lifetime.end.p0(i64 8, ptr %4) #9
  %41 = load i64, ptr %2, align 8
  ret i64 %41
}