; Function Attrs: nounwind uwtable
define dso_local i64 @pg_lsn_in(ptr noundef readonly captures(none) %0) local_unnamed_addr #4 {
  %2 = getelementptr inbounds nuw i8, ptr %0, i64 32
  %3 = load i64, ptr %2, align 8
  %4 = inttoptr i64 %3 to ptr
  %5 = tail call i64 @strspn(ptr noundef readonly %4, ptr noundef nonnull @.str) #12
  %6 = trunc i64 %5 to i32
  %7 = add i32 %6, -9
  %or.cond.i = icmp ult i32 %7, -8
  br i1 %or.cond.i, label %23, label %8

8:                                                ; preds = %1
  %9 = and i64 %5, 4294967295
  %10 = getelementptr inbounds nuw i8, ptr %4, i64 %9
  %11 = load i8, ptr %10, align 1
  %.not.i = icmp eq i8 %11, 47
  br i1 %.not.i, label %12, label %23

12:                                               ; preds = %8
  %13 = getelementptr inbounds nuw i8, ptr %10, i64 1
  %14 = tail call i64 @strspn(ptr noundef nonnull readonly %13, ptr noundef nonnull @.str) #12
  %15 = trunc i64 %14 to i32
  %16 = add i32 %15, -9
  %or.cond3.i = icmp ult i32 %16, -8
  br i1 %or.cond3.i, label %23, label %17

17:                                               ; preds = %12
  %18 = add i64 %5, 1
  %19 = add i64 %18, %14
  %20 = and i64 %19, 4294967295
  %21 = getelementptr inbounds nuw i8, ptr %4, i64 %20
  %22 = load i8, ptr %21, align 1
  %.not26.i = icmp eq i8 %22, 0
  br i1 %.not26.i, label %30, label %23

23:                                               ; preds = %8, %1, %17, %12
  %24 = getelementptr inbounds nuw i8, ptr %0, i64 8
  %25 = load ptr, ptr %24, align 8
  %26 = tail call zeroext i1 @errsave_start(ptr noundef %25, ptr noundef null) #13
  br i1 %26, label %27, label %36

27:                                               ; preds = %23
  %28 = tail call i32 @errcode(i32 noundef 33685634) #13
  %29 = tail call i32 (ptr, ...) @errmsg(ptr noundef nonnull @.str.1, ptr noundef nonnull @.str.2, ptr noundef %4) #13
  tail call void @errsave_finish(ptr noundef %25, ptr noundef nonnull @.str.3, i32 noundef 74, ptr noundef nonnull @__func__.pg_lsn_in) #13
  br label %36

30:                                               ; preds = %17
  %31 = tail call i64 @strtoul(ptr noundef nonnull readonly captures(none) %4, ptr noundef null, i32 noundef 16) #13
  %32 = tail call i64 @strtoul(ptr noundef nonnull readonly captures(none) %13, ptr noundef null, i32 noundef 16) #13
  %33 = shl i64 %31, 32
  %34 = and i64 %32, 4294967295
  %35 = or disjoint i64 %34, %33
  br label %36

36:                                               ; preds = %23, %27, %30
  %.0 = phi i64 [ %35, %30 ], [ 0, %27 ], [ 0, %23 ]
  ret i64 %.0
}